target datalayout = "e-m:e-p270:32:32-p271:32:32-p272:64:64-i64:64-i128:128-f80:128-n8:16:32:64-S128"
target triple = "x86_64-pc-linux-gnu"

%struct._FUserData = type { ptr, ptr, ptr, ptr, ptr, ptr, ptr, ptr, ptr }

; Function Attrs: nounwind uwtable
define void @ipunsetcallback_(ptr noundef %0) #0 {
  %2 = alloca ptr, align 8
  %3 = alloca ptr, align 8
  store ptr %0, ptr %2, align 8, !tbaa !32
  call void @llvm.lifetime.start.p0(i64 8, ptr %3) #6
  %4 = load ptr, ptr %2, align 8, !tbaa !32
  %5 = load ptr, ptr %4, align 8, !tbaa !10
  store ptr %5, ptr %3, align 8, !tbaa !13
  %6 = load ptr, ptr %3, align 8, !tbaa !13
  %7 = getelementptr inbounds nuw %struct._FUserData, ptr %6, i32 0, i32 7
  store ptr null, ptr %7, align 8, !tbaa !23
  %8 = load ptr, ptr %3, align 8, !tbaa !13
  %9 = getelementptr inbounds nuw %struct._FUserData, ptr %8, i32 0, i32 8
  %10 = load ptr, ptr %9, align 8, !tbaa !15
  %11 = call zeroext i1 @SetIntermediateCallback(ptr noundef %10, ptr noundef null)
  call void @llvm.lifetime.end.p0(i64 8, ptr %3) #6
  ret void
}