; Function Attrs: nounwind uwtable
define void @ipunsetcallback_(ptr noundef readonly captures(none) %0) local_unnamed_addr #0 {
  %2 = load ptr, ptr %0, align 8, !tbaa !23
  %3 = getelementptr inbounds nuw i8, ptr %2, i64 56
  store ptr null, ptr %3, align 8, !tbaa !18
  %4 = getelementptr inbounds nuw i8, ptr %2, i64 64
  %5 = load ptr, ptr %4, align 8, !tbaa !7
  %6 = tail call zeroext i1 @SetIntermediateCallback(ptr noundef %5, ptr noundef null) #8
  ret void
}